target datalayout = "e-m:e-p270:32:32-p271:32:32-p272:64:64-i64:64-i128:128-f80:128-n8:16:32:64-S128"
target triple = "x86_64-pc-linux-gnu"

%struct.SlruCtlData = type { ptr, i16, i8, i32, ptr, [64 x i8] }

@slru_errcause = internal global i32 0, align 4
@slru_errno = internal global i32 0, align 4
@.str.2 = private unnamed_addr constant [7 x i8] c"slru.c\00", align 1
@.str.5 = private unnamed_addr constant [11 x i8] c"%s/%015llX\00", align 1
@.str.6 = private unnamed_addr constant [8 x i8] c"%s/%04X\00", align 1
@.str.8 = private unnamed_addr constant [42 x i8] c"could not access status of transaction %u\00", align 1
@.str.9 = private unnamed_addr constant [30 x i8] c"Could not open file \22%s\22: %m.\00", align 1
@__func__.SlruReportIOError = private unnamed_addr constant [18 x i8] c"SlruReportIOError\00", align 1
@.str.10 = private unnamed_addr constant [46 x i8] c"Could not seek in file \22%s\22 to offset %d: %m.\00", align 1
@.str.11 = private unnamed_addr constant [48 x i8] c"Could not read from file \22%s\22 at offset %d: %m.\00", align 1
@.str.12 = private unnamed_addr constant [64 x i8] c"Could not read from file \22%s\22 at offset %d: read too few bytes.\00", align 1
@.str.13 = private unnamed_addr constant [47 x i8] c"Could not write to file \22%s\22 at offset %d: %m.\00", align 1
@.str.14 = private unnamed_addr constant [64 x i8] c"Could not write to file \22%s\22 at offset %d: wrote too few bytes.\00", align 1
@.str.15 = private unnamed_addr constant [31 x i8] c"Could not fsync file \22%s\22: %m.\00", align 1
@.str.16 = private unnamed_addr constant [31 x i8] c"Could not close file \22%s\22: %m.\00", align 1
@.str.17 = private unnamed_addr constant [39 x i8] c"unrecognized SimpleLru error cause: %d\00", align 1

; Function Attrs: inlinehint nounwind uwtable
define internal i32 @SlruFileName(ptr noundef %0, ptr noundef %1, i64 noundef %2) #4 {
  %4 = alloca i32, align 4
  %5 = alloca ptr, align 8
  %6 = alloca ptr, align 8
  %7 = alloca i64, align 8
  store ptr %0, ptr %5, align 8
  store ptr %1, ptr %6, align 8
  store i64 %2, ptr %7, align 8
  %8 = load ptr, ptr %5, align 8
  %9 = getelementptr inbounds nuw %struct.SlruCtlData, ptr %8, i32 0, i32 2
  %10 = load i8, ptr %9, align 2, !range !4, !noundef !5
  %11 = trunc i8 %10 to i1
  br i1 %11, label %12, label %19

12:                                               ; preds = %3
  %13 = load ptr, ptr %6, align 8
  %14 = load ptr, ptr %5, align 8
  %15 = getelementptr inbounds nuw %struct.SlruCtlData, ptr %14, i32 0, i32 5
  %16 = getelementptr inbounds [64 x i8], ptr %15, i64 0, i64 0
  %17 = load i64, ptr %7, align 8
  %18 = call i32 (ptr, i64, ptr, ...) @pg_snprintf(ptr noundef %13, i64 noundef 1024, ptr noundef @.str.5, ptr noundef %16, i64 noundef %17)
  store i32 %18, ptr %4, align 4
  br label %27

19:                                               ; preds = %3
  %20 = load ptr, ptr %6, align 8
  %21 = load ptr, ptr %5, align 8
  %22 = getelementptr inbounds nuw %struct.SlruCtlData, ptr %21, i32 0, i32 5
  %23 = getelementptr inbounds [64 x i8], ptr %22, i64 0, i64 0
  %24 = load i64, ptr %7, align 8
  %25 = trunc i64 %24 to i32
  %26 = call i32 (ptr, i64, ptr, ...) @pg_snprintf(ptr noundef %20, i64 noundef 1024, ptr noundef @.str.6, ptr noundef %23, i32 noundef %25)
  store i32 %26, ptr %4, align 4
  br label %27

27:                                               ; preds = %19, %12
  %28 = load i32, ptr %4, align 4
  ret i32 %28
}

; Function Attrs: nounwind uwtable
define internal void @SlruReportIOError(ptr noundef %0, i64 noundef %1, i32 noundef %2) #0 {
  %4 = alloca ptr, align 8
  %5 = alloca i64, align 8
  %6 = alloca i32, align 4
  %7 = alloca i64, align 8
  %8 = alloca i32, align 4
  %9 = alloca i32, align 4
  %10 = alloca [1024 x i8], align 16
  store ptr %0, ptr %4, align 8
  store i64 %1, ptr %5, align 8
  store i32 %2, ptr %6, align 4
  call void @llvm.lifetime.start.p0(i64 8, ptr %7) #9
  %11 = load i64, ptr %5, align 8
  %12 = sdiv i64 %11, 32
  store i64 %12, ptr %7, align 8
  call void @llvm.lifetime.start.p0(i64 4, ptr %8) #9
  %13 = load i64, ptr %5, align 8
  %14 = srem i64 %13, 32
  %15 = trunc i64 %14 to i32
  store i32 %15, ptr %8, align 4
  call void @llvm.lifetime.start.p0(i64 4, ptr %9) #9
  %16 = load i32, ptr %8, align 4
  %17 = mul i32 %16, 8192
  store i32 %17, ptr %9, align 4
  call void @llvm.lifetime.start.p0(i64 1024, ptr %10) #9
  %18 = load ptr, ptr %4, align 8
  %19 = getelementptr inbounds [1024 x i8], ptr %10, i64 0, i64 0
  %20 = load i64, ptr %7, align 8
  %21 = call i32 @SlruFileName(ptr noundef %18, ptr noundef %19, i64 noundef %20)
  %22 = load i32, ptr @slru_errno, align 4
  %23 = call ptr @__errno_location() #10
  store i32 %22, ptr %23, align 4
  %24 = load i32, ptr @slru_errcause, align 4
  switch i32 %24, label %163 [
    i32 0, label %25
    i32 1, label %40
    i32 2, label %56
    i32 3, label %92
    i32 4, label %128
    i32 5, label %148
  ]

25:                                               ; preds = %3
  br label %26

26:                                               ; preds = %25
  br i1 true, label %27, label %29

27:                                               ; preds = %26
  %28 = call zeroext i1 @errstart_cold(i32 noundef 21, ptr noundef null) #11
  br i1 %28, label %31, label %37

29:                                               ; preds = %26
  %30 = call zeroext i1 @errstart(i32 noundef 21, ptr noundef null)
  br i1 %30, label %31, label %37

31:                                               ; preds = %29, %27
  %32 = call i32 @errcode_for_file_access()
  %33 = load i32, ptr %6, align 4
  %34 = call i32 (ptr, ...) @errmsg(ptr noundef @.str.8, i32 noundef %33)
  %35 = getelementptr inbounds [1024 x i8], ptr %10, i64 0, i64 0
  %36 = call i32 (ptr, ...) @errdetail(ptr noundef @.str.9, ptr noundef %35)
  call void @errfinish(ptr noundef @.str.2, i32 noundef 1063, ptr noundef @__func__.SlruReportIOError)
  br label %37

37:                                               ; preds = %31, %29, %27
  unreachable

38:                                               ; No predecessors!
  br label %39

39:                                               ; preds = %38
  br label %175

40:                                               ; preds = %3
  br label %41

41:                                               ; preds = %40
  br i1 true, label %42, label %44

42:                                               ; preds = %41
  %43 = call zeroext i1 @errstart_cold(i32 noundef 21, ptr noundef null) #11
  br i1 %43, label %46, label %53

44:                                               ; preds = %41
  %45 = call zeroext i1 @errstart(i32 noundef 21, ptr noundef null)
  br i1 %45, label %46, label %53

46:                                               ; preds = %44, %42
  %47 = call i32 @errcode_for_file_access()
  %48 = load i32, ptr %6, align 4
  %49 = call i32 (ptr, ...) @errmsg(ptr noundef @.str.8, i32 noundef %48)
  %50 = getelementptr inbounds [1024 x i8], ptr %10, i64 0, i64 0
  %51 = load i32, ptr %9, align 4
  %52 = call i32 (ptr, ...) @errdetail(ptr noundef @.str.10, ptr noundef %50, i32 noundef %51)
  call void @errfinish(ptr noundef @.str.2, i32 noundef 1070, ptr noundef @__func__.SlruReportIOError)
  br label %53

53:                                               ; preds = %46, %44, %42
  unreachable

54:                                               ; No predecessors!
  br label %55

55:                                               ; preds = %54
  br label %175

56:                                               ; preds = %3
  %57 = call ptr @__errno_location() #10
  %58 = load i32, ptr %57, align 4
  %59 = icmp ne i32 %58, 0
  br i1 %59, label %60, label %76

60:                                               ; preds = %56
  br label %61

61:                                               ; preds = %60
  br i1 true, label %62, label %64

62:                                               ; preds = %61
  %63 = call zeroext i1 @errstart_cold(i32 noundef 21, ptr noundef null) #11
  br i1 %63, label %66, label %73

64:                                               ; preds = %61
  %65 = call zeroext i1 @errstart(i32 noundef 21, ptr noundef null)
  br i1 %65, label %66, label %73

66:                                               ; preds = %64, %62
  %67 = call i32 @errcode_for_file_access()
  %68 = load i32, ptr %6, align 4
  %69 = call i32 (ptr, ...) @errmsg(ptr noundef @.str.8, i32 noundef %68)
  %70 = getelementptr inbounds [1024 x i8], ptr %10, i64 0, i64 0
  %71 = load i32, ptr %9, align 4
  %72 = call i32 (ptr, ...) @errdetail(ptr noundef @.str.11, ptr noundef %70, i32 noundef %71)
  call void @errfinish(ptr noundef @.str.2, i32 noundef 1078, ptr noundef @__func__.SlruReportIOError)
  br label %73

73:                                               ; preds = %66, %64, %62
  unreachable

74:                                               ; No predecessors!
  br label %75

75:                                               ; preds = %74
  br label %91

76:                                               ; preds = %56
  br label %77

77:                                               ; preds = %76
  br i1 true, label %78, label %80

78:                                               ; preds = %77
  %79 = call zeroext i1 @errstart_cold(i32 noundef 21, ptr noundef null) #11
  br i1 %79, label %82, label %88

80:                                               ; preds = %77
  %81 = call zeroext i1 @errstart(i32 noundef 21, ptr noundef null)
  br i1 %81, label %82, label %88

82:                                               ; preds = %80, %78
  %83 = load i32, ptr %6, align 4
  %84 = call i32 (ptr, ...) @errmsg(ptr noundef @.str.8, i32 noundef %83)
  %85 = getelementptr inbounds [1024 x i8], ptr %10, i64 0, i64 0
  %86 = load i32, ptr %9, align 4
  %87 = call i32 (ptr, ...) @errdetail(ptr noundef @.str.12, ptr noundef %85, i32 noundef %86)
  call void @errfinish(ptr noundef @.str.2, i32 noundef 1082, ptr noundef @__func__.SlruReportIOError)
  br label %88

88:                                               ; preds = %82, %80, %78
  unreachable

89:                                               ; No predecessors!
  br label %90

90:                                               ; preds = %89
  br label %91

91:                                               ; preds = %90, %75
  br label %175

92:                                               ; preds = %3
  %93 = call ptr @__errno_location() #10
  %94 = load i32, ptr %93, align 4
  %95 = icmp ne i32 %94, 0
  br i1 %95, label %96, label %112

96:                                               ; preds = %92
  br label %97

97:                                               ; preds = %96
  br i1 true, label %98, label %100

98:                                               ; preds = %97
  %99 = call zeroext i1 @errstart_cold(i32 noundef 21, ptr noundef null) #11
  br i1 %99, label %102, label %109

100:                                              ; preds = %97
  %101 = call zeroext i1 @errstart(i32 noundef 21, ptr noundef null)
  br i1 %101, label %102, label %109

102:                                              ; preds = %100, %98
  %103 = call i32 @errcode_for_file_access()
  %104 = load i32, ptr %6, align 4
  %105 = call i32 (ptr, ...) @errmsg(ptr noundef @.str.8, i32 noundef %104)
  %106 = getelementptr inbounds [1024 x i8], ptr %10, i64 0, i64 0
  %107 = load i32, ptr %9, align 4
  %108 = call i32 (ptr, ...) @errdetail(ptr noundef @.str.13, ptr noundef %106, i32 noundef %107)
  call void @errfinish(ptr noundef @.str.2, i32 noundef 1090, ptr noundef @__func__.SlruReportIOError)
  br label %109

109:                                              ; preds = %102, %100, %98
  unreachable

110:                                              ; No predecessors!
  br label %111

111:                                              ; preds = %110
  br label %127

112:                                              ; preds = %92
  br label %113

113:                                              ; preds = %112
  br i1 true, label %114, label %116

114:                                              ; preds = %113
  %115 = call zeroext i1 @errstart_cold(i32 noundef 21, ptr noundef null) #11
  br i1 %115, label %118, label %124

116:                                              ; preds = %113
  %117 = call zeroext i1 @errstart(i32 noundef 21, ptr noundef null)
  br i1 %117, label %118, label %124

118:                                              ; preds = %116, %114
  %119 = load i32, ptr %6, align 4
  %120 = call i32 (ptr, ...) @errmsg(ptr noundef @.str.8, i32 noundef %119)
  %121 = getelementptr inbounds [1024 x i8], ptr %10, i64 0, i64 0
  %122 = load i32, ptr %9, align 4
  %123 = call i32 (ptr, ...) @errdetail(ptr noundef @.str.14, ptr noundef %121, i32 noundef %122)
  call void @errfinish(ptr noundef @.str.2, i32 noundef 1095, ptr noundef @__func__.SlruReportIOError)
  br label %124

124:                                              ; preds = %118, %116, %114
  unreachable

125:                                              ; No predecessors!
  br label %126

126:                                              ; preds = %125
  br label %127

127:                                              ; preds = %126, %111
  br label %175

128:                                              ; preds = %3
  br label %129

129:                                              ; preds = %128
  br i1 false, label %130, label %136

130:                                              ; preds = %129
  %131 = call i32 @data_sync_elevel(i32 noundef 21)
  %132 = icmp sge i32 %131, 21
  br i1 %132, label %133, label %136

133:                                              ; preds = %130
  %134 = call i32 @data_sync_elevel(i32 noundef 21)
  %135 = call zeroext i1 @errstart_cold(i32 noundef %134, ptr noundef null) #11
  br i1 %135, label %139, label %145

136:                                              ; preds = %130, %129
  %137 = call i32 @data_sync_elevel(i32 noundef 21)
  %138 = call zeroext i1 @errstart(i32 noundef %137, ptr noundef null)
  br i1 %138, label %139, label %145

139:                                              ; preds = %136, %133
  %140 = call i32 @errcode_for_file_access()
  %141 = load i32, ptr %6, align 4
  %142 = call i32 (ptr, ...) @errmsg(ptr noundef @.str.8, i32 noundef %141)
  %143 = getelementptr inbounds [1024 x i8], ptr %10, i64 0, i64 0
  %144 = call i32 (ptr, ...) @errdetail(ptr noundef @.str.15, ptr noundef %143)
  call void @errfinish(ptr noundef @.str.2, i32 noundef 1102, ptr noundef @__func__.SlruReportIOError)
  br label %145

145:                                              ; preds = %139, %136, %133
  br label %146

146:                                              ; preds = %145
  br label %147

147:                                              ; preds = %146
  br label %175

148:                                              ; preds = %3
  br label %149

149:                                              ; preds = %148
  br i1 true, label %150, label %152

150:                                              ; preds = %149
  %151 = call zeroext i1 @errstart_cold(i32 noundef 21, ptr noundef null) #11
  br i1 %151, label %154, label %160

152:                                              ; preds = %149
  %153 = call zeroext i1 @errstart(i32 noundef 21, ptr noundef null)
  br i1 %153, label %154, label %160

154:                                              ; preds = %152, %150
  %155 = call i32 @errcode_for_file_access()
  %156 = load i32, ptr %6, align 4
  %157 = call i32 (ptr, ...) @errmsg(ptr noundef @.str.8, i32 noundef %156)
  %158 = getelementptr inbounds [1024 x i8], ptr %10, i64 0, i64 0
  %159 = call i32 (ptr, ...) @errdetail(ptr noundef @.str.16, ptr noundef %158)
  call void @errfinish(ptr noundef @.str.2, i32 noundef 1109, ptr noundef @__func__.SlruReportIOError)
  br label %160

160:                                              ; preds = %154, %152, %150
  unreachable

161:                                              ; No predecessors!
  br label %162

162:                                              ; preds = %161
  br label %175

163:                                              ; preds = %3
  br label %164

164:                                              ; preds = %163
  br i1 true, label %165, label %167

165:                                              ; preds = %164
  %166 = call zeroext i1 @errstart_cold(i32 noundef 21, ptr noundef null) #11
  br i1 %166, label %169, label %172

167:                                              ; preds = %164
  %168 = call zeroext i1 @errstart(i32 noundef 21, ptr noundef null)
  br i1 %168, label %169, label %172

169:                                              ; preds = %167, %165
  %170 = load i32, ptr @slru_errcause, align 4
  %171 = call i32 (ptr, ...) @errmsg_internal(ptr noundef @.str.17, i32 noundef %170)
  call void @errfinish(ptr noundef @.str.2, i32 noundef 1114, ptr noundef @__func__.SlruReportIOError)
  br label %172

172:                                              ; preds = %169, %167, %165
  unreachable

173:                                              ; No predecessors!
  br label %174

174:                                              ; preds = %173
  br label %175

175:                                              ; preds = %174, %162, %147, %127, %91, %55, %39
  call void @llvm.lifetime.end.p0(i64 1024, ptr %10) #9
  call void @llvm.lifetime.end.p0(i64 4, ptr %9) #9
  call void @llvm.lifetime.end.p0(i64 4, ptr %8) #9
  call void @llvm.lifetime.end.p0(i64 8, ptr %7) #9
  ret void
}