; Function Attrs: nounwind uwtable
define internal fastcc void @SlruReportIOError(ptr noundef %0, i64 noundef %1, i32 noundef %2) unnamed_addr #3 {
  %4 = alloca [1024 x i8], align 16
  %5 = sdiv i64 %1, 32
  %6 = srem i64 %1, 32
  %7 = trunc nsw i64 %6 to i32
  %8 = shl nsw i32 %7, 13
  call void @llvm.lifetime.start.p0(i64 1024, ptr nonnull %4) #15
  %9 = getelementptr inbounds nuw i8, ptr %0, i64 10
  %10 = load i8, ptr %9, align 2, !range !4, !noundef !5
  %11 = trunc nuw i8 %10 to i1
  %12 = getelementptr inbounds nuw i8, ptr %0, i64 24
  br i1 %11, label %13, label %15

13:                                               ; preds = %3
  %14 = call i32 (ptr, i64, ptr, ...) @pg_snprintf(ptr noundef nonnull %4, i64 noundef 1024, ptr noundef nonnull @.str.5, ptr noundef nonnull %12, i64 noundef %5) #15
  br label %SlruFileName.exit

15:                                               ; preds = %3
  %16 = trunc i64 %5 to i32
  %17 = call i32 (ptr, i64, ptr, ...) @pg_snprintf(ptr noundef nonnull %4, i64 noundef 1024, ptr noundef nonnull @.str.6, ptr noundef nonnull %12, i32 noundef %16) #15
  br label %SlruFileName.exit

SlruFileName.exit:                                ; preds = %13, %15
  %18 = load i32, ptr @slru_errno, align 4
  %19 = tail call ptr @__errno_location() #16
  store i32 %18, ptr %19, align 4
  %20 = load i32, ptr @slru_errcause, align 4
  switch i32 %20, label %default.unreachable [
    i32 0, label %21
    i32 1, label %26
    i32 2, label %31
    i32 3, label %40
    i32 4, label %49
    i32 5, label %56
  ]

21:                                               ; preds = %SlruFileName.exit
  %22 = call zeroext i1 @errstart_cold(i32 noundef 21, ptr noundef null) #17
  call void @llvm.assume(i1 %22)
  %23 = call i32 @errcode_for_file_access() #15
  %24 = call i32 (ptr, ...) @errmsg(ptr noundef nonnull @.str.8, i32 noundef %2) #15
  %25 = call i32 (ptr, ...) @errdetail(ptr noundef nonnull @.str.9, ptr noundef nonnull %4) #15
  call void @errfinish(ptr noundef nonnull @.str.2, i32 noundef 1063, ptr noundef nonnull @__func__.SlruReportIOError) #15
  unreachable

26:                                               ; preds = %SlruFileName.exit
  %27 = call zeroext i1 @errstart_cold(i32 noundef 21, ptr noundef null) #17
  call void @llvm.assume(i1 %27)
  %28 = call i32 @errcode_for_file_access() #15
  %29 = call i32 (ptr, ...) @errmsg(ptr noundef nonnull @.str.8, i32 noundef %2) #15
  %30 = call i32 (ptr, ...) @errdetail(ptr noundef nonnull @.str.10, ptr noundef nonnull %4, i32 noundef %8) #15
  call void @errfinish(ptr noundef nonnull @.str.2, i32 noundef 1070, ptr noundef nonnull @__func__.SlruReportIOError) #15
  unreachable

31:                                               ; preds = %SlruFileName.exit
  %.not17 = icmp eq i32 %18, 0
  %32 = call zeroext i1 @errstart_cold(i32 noundef 21, ptr noundef null) #17
  call void @llvm.assume(i1 %32)
  br i1 %.not17, label %37, label %33

33:                                               ; preds = %31
  %34 = call i32 @errcode_for_file_access() #15
  %35 = call i32 (ptr, ...) @errmsg(ptr noundef nonnull @.str.8, i32 noundef %2) #15
  %36 = call i32 (ptr, ...) @errdetail(ptr noundef nonnull @.str.11, ptr noundef nonnull %4, i32 noundef %8) #15
  call void @errfinish(ptr noundef nonnull @.str.2, i32 noundef 1078, ptr noundef nonnull @__func__.SlruReportIOError) #15
  unreachable

37:                                               ; preds = %31
  %38 = call i32 (ptr, ...) @errmsg(ptr noundef nonnull @.str.8, i32 noundef %2) #15
  %39 = call i32 (ptr, ...) @errdetail(ptr noundef nonnull @.str.12, ptr noundef nonnull %4, i32 noundef %8) #15
  call void @errfinish(ptr noundef nonnull @.str.2, i32 noundef 1082, ptr noundef nonnull @__func__.SlruReportIOError) #15
  unreachable

40:                                               ; preds = %SlruFileName.exit
  %.not = icmp eq i32 %18, 0
  %41 = call zeroext i1 @errstart_cold(i32 noundef 21, ptr noundef null) #17
  call void @llvm.assume(i1 %41)
  br i1 %.not, label %46, label %42

42:                                               ; preds = %40
  %43 = call i32 @errcode_for_file_access() #15
  %44 = call i32 (ptr, ...) @errmsg(ptr noundef nonnull @.str.8, i32 noundef %2) #15
  %45 = call i32 (ptr, ...) @errdetail(ptr noundef nonnull @.str.13, ptr noundef nonnull %4, i32 noundef %8) #15
  call void @errfinish(ptr noundef nonnull @.str.2, i32 noundef 1090, ptr noundef nonnull @__func__.SlruReportIOError) #15
  unreachable

46:                                               ; preds = %40
  %47 = call i32 (ptr, ...) @errmsg(ptr noundef nonnull @.str.8, i32 noundef %2) #15
  %48 = call i32 (ptr, ...) @errdetail(ptr noundef nonnull @.str.14, ptr noundef nonnull %4, i32 noundef %8) #15
  call void @errfinish(ptr noundef nonnull @.str.2, i32 noundef 1095, ptr noundef nonnull @__func__.SlruReportIOError) #15
  unreachable

49:                                               ; preds = %SlruFileName.exit
  %50 = call i32 @data_sync_elevel(i32 noundef 21) #15
  %51 = call zeroext i1 @errstart(i32 noundef %50, ptr noundef null) #15
  br i1 %51, label %52, label %61

52:                                               ; preds = %49
  %53 = call i32 @errcode_for_file_access() #15
  %54 = call i32 (ptr, ...) @errmsg(ptr noundef nonnull @.str.8, i32 noundef %2) #15
  %55 = call i32 (ptr, ...) @errdetail(ptr noundef nonnull @.str.15, ptr noundef nonnull %4) #15
  call void @errfinish(ptr noundef nonnull @.str.2, i32 noundef 1102, ptr noundef nonnull @__func__.SlruReportIOError) #15
  br label %61

56:                                               ; preds = %SlruFileName.exit
  %57 = call zeroext i1 @errstart_cold(i32 noundef 21, ptr noundef null) #17
  call void @llvm.assume(i1 %57)
  %58 = call i32 @errcode_for_file_access() #15
  %59 = call i32 (ptr, ...) @errmsg(ptr noundef nonnull @.str.8, i32 noundef %2) #15
  %60 = call i32 (ptr, ...) @errdetail(ptr noundef nonnull @.str.16, ptr noundef nonnull %4) #15
  call void @errfinish(ptr noundef nonnull @.str.2, i32 noundef 1109, ptr noundef nonnull @__func__.SlruReportIOError) #15
  unreachable

default.unreachable:                              ; preds = %SlruFileName.exit
  unreachable

61:                                               ; preds = %49, %52
  call void @llvm.lifetime.end.p0(i64 1024, ptr nonnull %4) #15
  ret void
}